(dp1
S'output'
p2
S"<type 'exceptions.SyntaxError'> Field booked_in does not belong to the table"
p3
sS'layer'
p4
S'/home/sourav/web2py/applications/pro1/controllers/default.py'
p5
sS'code'
p6
S'# -*- coding: utf-8 -*-\n# this file is released under public domain and you can use without limitations\n\n#########################################################################\n## This is a sample controller\n## - index is the default action of any application\n## - user is required for authentication and authorization\n## - download is for downloading files uploaded in the db (does streaming)\n#########################################################################\n\ndef download():\n    """\n    allows downloading of uploaded files\n    http://..../[app]/default/download/[filename]\n    """\n    return response.download(request,db)\n\n\ndef index():\n    """\n    example action using the internationalization operator T and flash\n    rendered by views/default/index.html or views/generic.html\n\n    if you need a simple wiki simply replace the two lines below with:\n    return auth.wiki()\n    """\n    response.flash = T("Hello World")\n    return dict(message=T(\'Welcome to web2py!\'))\n\nimport datetime\ndef search_flight():\n        form=SQLFORM.factory(\n\t\t\tField(\'From\',requires=IS_IN_DB(db,db.places.body)),\n\t\t\tField(\'To\',requires=IS_IN_DB(db,db.places.body)),\n\t\t\tField(\'d\',\'date\',label=\'Departure (Date)\',requires=IS_DATE()),\n\t\t\tField(\'d1\',\'date\',label=\'Arrival (Date)\'),\n\t\t\tField(\'Class\',requires=IS_IN_SET([\'Business\',\'Economy\'])),\n\t\t\tField(\'seats\',label=\'Number of passengers\',requires=IS_IN_SET((1,2,3,4,5,6))))\n        form.add_button(\'Back\',URL(\'index\'))\n        if form.accepts(request.vars,session):\n                if form.vars.From == form.vars.To:\n                        session.flash="Source and Destination should not be the same!"\n                        redirect(URL(\'default\',\'search_flight\'))\n                elif form.vars.d<datetime.date.today():\n                        session.flash="Enter a valid date!"\n                        redirect(URL(\'default\',\'search_flight\'))\n                elif form.vars.d1 and form.vars.d1 < form.vars.d:\n                        session.flash=\'Invalid Input\'\n                        redirect(URL(\'default\',\'search_flight\'))\n                elif form.vars.d1 and form.vars.d1 >= form.vars.d:\n                        session.seats=request.vars.seats\n                        session.date=request.vars.d\n                        session.date2=request.vars.d1\n                        redirect(URL(\'round_search\',args=(request.vars.From,request.vars.To,request.vars.d,request.vars.seats,request.vars.Class,request.vars.d1)))\n                else:\n                        session.seats=request.vars.seats\n                        session.date=request.vars.d\n                        redirect(URL(\'result_flight\',args=(request.vars.From,request.vars.To,request.vars.d,request.vars.seats,request.vars.Class)))\n        return dict(form=form)\n\ndef retday(x):\n        days=datetime.datetime(int(x[:4]),int(x[5:7]),int(x[8:10])).isoweekday()\n        return days\n\ndef result_flight():\n        session.date=request.args(2)\n        days=retday(request.args(2))\n        lis=db((db.flights.src==request.args(0)) & (db.flights.dest==request.args(1))).select(db.flights.ALL)\n        sid=[]\n        ssrc=[]\n        sdest=[]\n        sfare=[]\n        sclass=[]\n        sname=[]\n        satime=[]\n        sdtime=[]\n        scompany=[]\n        slogo=[]\n        for l in lis:\n                if db.flights[l.id].day_of_flight.isoweekday()==days:\n                        sid.append(db.flights[l.id].flight_id)\n                        ssrc.append(db.flights[l.id].src)\n                        sdest.append(db.flights[l.id].dest)\n                        scompany.append(db.flights[l.id].company)\n                        sfare.append(db.flights[l.id].fare)\n                        #sdate.append(str(db.flights[l.id].day_of_flight)[:10])\n                        sclass.append(db.flights[l.id].class_type)\n                        satime.append(db.flights[l.id].atime)\n                        sdtime.append(db.flights[l.id].dtime)\n                        slogo.append(db.flights[l.id].logo)\n        return dict(sid=sid,ssrc=ssrc,sdest=sdest,sfare=sfare,sclass=sclass,sdtime=sdtime,satime=satime,scompany=scompany,slogo=slogo)\n\ndef confirm():\n    return dict()\n\n\ndef book():\n        db.flight_bookings.insert(user_id=auth.user.id,num=request.vars.seats,d=session.date,arrival=request.vars.atime,depart=request.vars.dtime,lis=request.vars.send,price=request.vars.price,booked_in=request.vars.lis,src=request.vars.src,dest=request.vars.dest,cl=request.vars.cl)\n\tsession.flash="Your ticket has been booked!"\n\tredirect(URL(\'index\'))\n\n\n\n\n@auth.requires_login()\ndef viewbookings():\n        print auth.user.id\n        ctr=0\n        c=0\n        import datetime\n        d1=datetime.date.today()\n        flag=0\n        f=0\n        flight=db(db.flight_bookings.user_id==auth.user.id).select(db.flight_bookings.ALL,orderby=db.flight_bookings.d)\n        for i in range(len(flight)):\n                if ((flight[i][\'d\']-d1)<datetime.timedelta(0)):\n                        ctr=ctr+1 \n                if ((flight[i][\'d\']-d1)>=datetime.timedelta(0)):\n                        c=c+1\n        if (ctr==len(flight)):\n                flag=1\n        if (c==len(flight)):\n                f=1\n        return locals()\n\n\n\ndef search_train():\n\tform=SQLFORM.factory(\n\t\t\tField(\'From\',requires=IS_IN_DB(db,db.places.body)),\n\t\t\tField(\'To\',requires=IS_IN_DB(db,db.places.body)),\n\t\t\tField(\'d\',\'datetime\',label=\'Departure (Date)\',requires=IS_DATETIME()),\n\t\t\tField(\'Class\',requires=IS_IN_SET([\'1A\',\'2A\',\'3A\',\'SL\',\'CC\'])),\n\t\t\tField(\'seats\',\'integer\',label=\'Number of passengers\',requires=IS_IN_SET((1,2,3,4,5,6))))\n\tif form.accepts(request.vars,session):\n\t\tif form.vars.From == form.vars.To:\n\t\t\tsession.flash="Source and Destination should not be the same!"\n\t\t\tredirect(URL(\'default\',\'search_train\'))\n\t\telif form.vars.d.date()<datetime.date.today():\n\t\t\tsession.flash="Enter a valid date!"\n\t\t\tredirect(URL(\'default\',\'search_train\'))\n\t\telse:\n\t\t\tsession.seats=request.vars.seats\n\t\t\tsession.date=request.vars.d.date()\n\t\t\tredirect(URL(\'searcht\',args=(request.vars.From,request.vars.To,request.vars.d,request.vars.seats,request.vars.Class)))\n\tsession.var=1\n\treturn dict(form=form)\n\n\n\ndef review():\n    rows= db(db.review).select(orderby=~db.review.created_on)\n    return locals()\n\n@auth.requires_login()\ndef creview():\n    form= SQLFORM(db.review).process()\n    if form.accepted:\n        session.flash=\'Thank you for Review\'\n        redirect(URL(\'default\',\'review\'))\n    return locals()\n\n@auth.requires_membership(\'managers\')\ndef manage_places():\n    places_grid=SQLFORM.grid(db.places)\n    return locals()\n\n@auth.requires_membership(\'managers\')\ndef manage_train():\n    train_grid=SQLFORM.grid(db.trains)\n    return locals()\n\n@auth.requires_membership(\'managers\')\ndef manage_users():\n        grid = SQLFORM.grid(db.auth_user,user_signature=False)\n        return locals()\n\n\n@auth.requires_membership(\'managers\')\ndef manage_flight():\n    flight_grid=SQLFORM.grid(db.flights)\n    return locals()\n\n\n@auth.requires_membership(\'managers\')\ndef manage_review():\n    review_grid=SQLFORM.grid(db.review)\n    return locals()\n\ndef reviews():\n    post=db.review(request.args(0,cast=int))\n    return locals()\n\ndef user():\n    """\n    exposes:\n    http://..../[app]/default/user/login\n    http://..../[app]/default/user/logout\n    http://..../[app]/default/user/register\n    http://..../[app]/default/user/profile\n    http://..../[app]/default/user/retrieve_password\n    http://..../[app]/default/user/change_password\n    http://..../[app]/default/user/manage_users (requires membership in\n    use @auth.requires_login()\n        @auth.requires_membership(\'group name\')\n        @auth.requires_permission(\'read\',\'table name\',record_id)\n    to decorate functions that need access control\n    """\n    return dict(form=auth())\n\n\n@cache.action()\ndef download():\n    """\n    allows downloading of uploaded files\n    http://..../[app]/default/download/[filename]\n    """\n    return response.download(request, db)\n\n\ndef call():\n    """\n    exposes services. for example:\n    http://..../[app]/default/call/jsonrpc\n    decorate with @services.jsonrpc the functions to expose\n    supports xml, json, xmlrpc, jsonrpc, amfrpc, rss, csv\n    """\n    return service()\n\nresponse._vars=response._caller(book)\n'
p7
sS'snapshot'
p8
(dp9
S'exception'
p10
(dp11
S'__getslice__'
p12
S"<method-wrapper '__getslice__' of exceptions.SyntaxError object>"
p13
sS'text'
p14
S'None'
p15
sS'__str__'
p16
S"<method-wrapper '__str__' of exceptions.SyntaxError object>"
p17
sS'__reduce__'
p18
S'<built-in method __reduce__ of exceptions.SyntaxError object>'
p19
sS'__dict__'
p20
S'{}'
p21
sS'__sizeof__'
p22
S'<built-in method __sizeof__ of exceptions.SyntaxError object>'
p23
sS'__init__'
p24
S"<method-wrapper '__init__' of exceptions.SyntaxError object>"
p25
sS'__setattr__'
p26
S"<method-wrapper '__setattr__' of exceptions.SyntaxError object>"
p27
sS'__reduce_ex__'
p28
S'<built-in method __reduce_ex__ of exceptions.SyntaxError object>'
p29
sS'__new__'
p30
S'<built-in method __new__ of type object>'
p31
sS'__format__'
p32
S'<built-in method __format__ of exceptions.SyntaxError object>'
p33
sS'__class__'
p34
S"<type 'exceptions.SyntaxError'>"
p35
sS'filename'
p36
S'None'
p37
sS'lineno'
p38
S'None'
p39
sS'msg'
p40
S"'Field booked_in does not belong to the table'"
p41
sS'__doc__'
p42
S"'Invalid syntax.'"
p43
sS'__getitem__'
p44
S"<method-wrapper '__getitem__' of exceptions.SyntaxError object>"
p45
sS'__setstate__'
p46
S'<built-in method __setstate__ of exceptions.SyntaxError object>'
p47
sS'__getattribute__'
p48
S"<method-wrapper '__getattribute__' of exceptions.SyntaxError object>"
p49
sS'print_file_and_line'
p50
S'None'
p51
sS'args'
p52
S"('Field booked_in does not belong to the table',)"
p53
sS'__subclasshook__'
p54
S'<built-in method __subclasshook__ of type object>'
p55
sS'offset'
p56
S'None'
p57
sS'__unicode__'
p58
S'<built-in method __unicode__ of exceptions.SyntaxError object>'
p59
sS'__delattr__'
p60
S"<method-wrapper '__delattr__' of exceptions.SyntaxError object>"
p61
sS'__repr__'
p62
S"<method-wrapper '__repr__' of exceptions.SyntaxError object>"
p63
sS'__hash__'
p64
S"<method-wrapper '__hash__' of exceptions.SyntaxError object>"
p65
ssS'evalue'
p66
S'Field booked_in does not belong to the table'
p67
sS'request'
p68
cgluon.html
XML_unpickle
p69
(S's\xb8n\x00\x00<div><table><tr><td style="font-weight:bold;vertical-align:top;">ajax</td><td style="vertical-align:top;">:</td><td><div>False</div></td></tr><tr><td style="font-weight:bold;vertical-align:top;">application</td><td style="vertical-align:top;">:</td><td><div>pro1</div></td></tr><tr><td style="font-weight:bold;vertical-align:top;">args</td><td style="vertical-align:top;">:</td><td><div><table></table></div></td></tr><tr><td style="font-weight:bold;vertical-align:top;">cid</td><td style="vertical-align:top;">:</td><td><div>None</div></td></tr><tr><td style="font-weight:bold;vertical-align:top;">client</td><td style="vertical-align:top;">:</td><td><div>127.0.0.1</div></td></tr><tr><td style="font-weight:bold;vertical-align:top;">controller</td><td style="vertical-align:top;">:</td><td><div>default</div></td></tr><tr><td style="font-weight:bold;vertical-align:top;">cookies</td><td style="vertical-align:top;">:</td><td><div><table><tr><td style="font-weight:bold;vertical-align:top;">session_id_admin</td><td style="vertical-align:top;">:</td><td><div>127.0.0.1-272b6b99-6f58-4d9e-872c-c7fecc6a56c1<table><tr><td style="font-weight:bold;vertical-align:top;">comment</td><td style="vertical-align:top;">:</td><td><div></div></td></tr><tr><td style="font-weight:bold;vertical-align:top;">domain</td><td style="vertical-align:top;">:</td><td><div></div></td></tr><tr><td style="font-weight:bold;vertical-align:top;">expires</td><td style="vertical-align:top;">:</td><td><div></div></td></tr><tr><td style="font-weight:bold;vertical-align:top;">httponly</td><td style="vertical-align:top;">:</td><td><div></div></td></tr><tr><td style="font-weight:bold;vertical-align:top;">max-age</td><td style="vertical-align:top;">:</td><td><div></div></td></tr><tr><td style="font-weight:bold;vertical-align:top;">path</td><td style="vertical-align:top;">:</td><td><div></div></td></tr><tr><td style="font-weight:bold;vertical-align:top;">secure</td><td style="vertical-align:top;">:</td><td><div></div></td></tr><tr><td style="font-weight:bold;vertical-align:top;">version</td><td style="vertical-align:top;">:</td><td><div></div></td></tr></table></div></td></tr><tr><td style="font-weight:bold;vertical-align:top;">session_id_appp1</td><td style="vertical-align:top;">:</td><td><div>127.0.0.1-5df31f36-0b15-4160-98e0-5783326b9a1a<table><tr><td style="font-weight:bold;vertical-align:top;">comment</td><td style="vertical-align:top;">:</td><td><div></div></td></tr><tr><td style="font-weight:bold;vertical-align:top;">domain</td><td style="vertical-align:top;">:</td><td><div></div></td></tr><tr><td style="font-weight:bold;vertical-align:top;">expires</td><td style="vertical-align:top;">:</td><td><div></div></td></tr><tr><td style="font-weight:bold;vertical-align:top;">httponly</td><td style="vertical-align:top;">:</td><td><div></div></td></tr><tr><td style="font-weight:bold;vertical-align:top;">max-age</td><td style="vertical-align:top;">:</td><td><div></div></td></tr><tr><td style="font-weight:bold;vertical-align:top;">path</td><td style="vertical-align:top;">:</td><td><div></div></td></tr><tr><td style="font-weight:bold;vertical-align:top;">secure</td><td style="vertical-align:top;">:</td><td><div></div></td></tr><tr><td style="font-weight:bold;vertical-align:top;">version</td><td style="vertical-align:top;">:</td><td><div></div></td></tr></table></div></td></tr><tr><td style="font-weight:bold;vertical-align:top;">session_id_p1</td><td style="vertical-align:top;">:</td><td><div>127.0.0.1-7fa6e2d2-1f97-4130-b9ac-b35517cc12c9<table><tr><td style="font-weight:bold;vertical-align:top;">comment</td><td style="vertical-align:top;">:</td><td><div></div></td></tr><tr><td style="font-weight:bold;vertical-align:top;">domain</td><td style="vertical-align:top;">:</td><td><div></div></td></tr><tr><td style="font-weight:bold;vertical-align:top;">expires</td><td style="vertical-align:top;">:</td><td><div></div></td></tr><tr><td style="font-weight:bold;vertical-align:top;">httponly</td><td style="vertical-align:top;">:</td><td><div></div></td></tr><tr><td style="font-weight:bold;vertical-align:top;">max-age</td><td style="vertical-align:top;">:</td><td><div></div></td></tr><tr><td style="font-weight:bold;vertical-align:top;">path</td><td style="vertical-align:top;">:</td><td><div></div></td></tr><tr><td style="font-weight:bold;vertical-align:top;">secure</td><td style="vertical-align:top;">:</td><td><div></div></td></tr><tr><td style="font-weight:bold;vertical-align:top;">version</td><td style="vertical-align:top;">:</td><td><div></div></td></tr></table></div></td></tr><tr><td style="font-weight:bold;vertical-align:top;">session_id_pro1</td><td style="vertical-align:top;">:</td><td><div>127.0.0.1-a22469ed-fb09-4c87-8905-f103dd4a51e9<table><tr><td style="font-weight:bold;vertical-align:top;">comment</td><td style="vertical-align:top;">:</td><td><div></div></td></tr><tr><td style="font-weight:bold;vertical-align:top;">domain</td><td style="vertical-align:top;">:</td><td><div></div></td></tr><tr><td style="font-weight:bold;vertical-align:top;">expires</td><td style="vertical-align:top;">:</td><td><div></div></td></tr><tr><td style="font-weight:bold;vertical-align:top;">httponly</td><td style="vertical-align:top;">:</td><td><div></div></td></tr><tr><td style="font-weight:bold;vertical-align:top;">max-age</td><td style="vertical-align:top;">:</td><td><div></div></td></tr><tr><td style="font-weight:bold;vertical-align:top;">path</td><td style="vertical-align:top;">:</td><td><div></div></td></tr><tr><td style="font-weight:bold;vertical-align:top;">secure</td><td style="vertical-align:top;">:</td><td><div></div></td></tr><tr><td style="font-weight:bold;vertical-align:top;">version</td><td style="vertical-align:top;">:</td><td><div></div></td></tr></table></div></td></tr><tr><td style="font-weight:bold;vertical-align:top;">session_id_uipart</td><td style="vertical-align:top;">:</td><td><div>127.0.0.1-8f1f0467-cfac-4894-8fb1-9ec0fc48b0c1<table><tr><td style="font-weight:bold;vertical-align:top;">comment</td><td style="vertical-align:top;">:</td><td><div></div></td></tr><tr><td style="font-weight:bold;vertical-align:top;">domain</td><td style="vertical-align:top;">:</td><td><div></div></td></tr><tr><td style="font-weight:bold;vertical-align:top;">expires</td><td style="vertical-align:top;">:</td><td><div></div></td></tr><tr><td style="font-weight:bold;vertical-align:top;">httponly</td><td style="vertical-align:top;">:</td><td><div></div></td></tr><tr><td style="font-weight:bold;vertical-align:top;">max-age</td><td style="vertical-align:top;">:</td><td><div></div></td></tr><tr><td style="font-weight:bold;vertical-align:top;">path</td><td style="vertical-align:top;">:</td><td><div></div></td></tr><tr><td style="font-weight:bold;vertical-align:top;">secure</td><td style="vertical-align:top;">:</td><td><div></div></td></tr><tr><td style="font-weight:bold;vertical-align:top;">version</td><td style="vertical-align:top;">:</td><td><div></div></td></tr></table></div></td></tr><tr><td style="font-weight:bold;vertical-align:top;">session_id_welcome</td><td style="vertical-align:top;">:</td><td><div>127.0.0.1-8ad063c4-770c-4875-adf6-0a90f836d9b2<table><tr><td style="font-weight:bold;vertical-align:top;">comment</td><td style="vertical-align:top;">:</td><td><div></div></td></tr><tr><td style="font-weight:bold;vertical-align:top;">domain</td><td style="vertical-align:top;">:</td><td><div></div></td></tr><tr><td style="font-weight:bold;vertical-align:top;">expires</td><td style="vertical-align:top;">:</td><td><div></div></td></tr><tr><td style="font-weight:bold;vertical-align:top;">httponly</td><td style="vertical-align:top;">:</td><td><div></div></td></tr><tr><td style="font-weight:bold;vertical-align:top;">max-age</td><td style="vertical-align:top;">:</td><td><div></div></td></tr><tr><td style="font-weight:bold;vertical-align:top;">path</td><td style="vertical-align:top;">:</td><td><div></div></td></tr><tr><td style="font-weight:bold;vertical-align:top;">secure</td><td style="vertical-align:top;">:</td><td><div></div></td></tr><tr><td style="font-weight:bold;vertical-align:top;">version</td><td style="vertical-align:top;">:</td><td><div></div></td></tr></table></div></td></tr></table></div></td></tr><tr><td style="font-weight:bold;vertical-align:top;">env</td><td style="vertical-align:top;">:</td><td><div><table><tr><td style="font-weight:bold;vertical-align:top;">HTTP_ACCEPT</td><td style="vertical-align:top;">:</td><td><div>text/html,application/xhtml+xml,application/xml;q=0.9,*/*;q=0.8</div></td></tr><tr><td style="font-weight:bold;vertical-align:top;">HTTP_ACCEPT_ENCODING</td><td style="vertical-align:top;">:</td><td><div>gzip, deflate</div></td></tr><tr><td style="font-weight:bold;vertical-align:top;">HTTP_ACCEPT_LANGUAGE</td><td style="vertical-align:top;">:</td><td><div>en-US,en;q=0.5</div></td></tr><tr><td style="font-weight:bold;vertical-align:top;">HTTP_CONNECTION</td><td style="vertical-align:top;">:</td><td><div>keep-alive</div></td></tr><tr><td style="font-weight:bold;vertical-align:top;">HTTP_COOKIE</td><td style="vertical-align:top;">:</td><td><div>session_id_welcome=127.0.0.1-8ad063c4-770c-4875-adf6-0a90f836d9b2; session_id_admin=127.0.0.1-272b6b99-6f58-4d9e-872c-c7fecc6a56c1; session_id_appp1=127.0.0.1-5df31f36-0b15-4160-98e0-5783326b9a1a; session_id_pro1=127.0.0.1-a22469ed-fb09-4c87-8905-f103dd4a51e9; session_id_uipart=127.0.0.1-8f1f0467-cfac-4894-8fb1-9ec0fc48b0c1; session_id_p1=127.0.0.1-7fa6e2d2-1f97-4130-b9ac-b35517cc12c9</div></td></tr><tr><td style="font-weight:bold;vertical-align:top;">HTTP_HOST</td><td style="vertical-align:top;">:</td><td><div>127.0.0.1:8000</div></td></tr><tr><td style="font-weight:bold;vertical-align:top;">HTTP_REFERER</td><td style="vertical-align:top;">:</td><td><div>http://127.0.0.1:8000/pro1/default/confirm?satime=05%3A57%3A40&amp;sclass=Economy&amp;scompany=Indigo&amp;sdest=Bangalore&amp;sdtime=08%3A57%3A42&amp;seats=2&amp;sfare=246&amp;sid=6546&amp;ssrc=Ahmedabad</div></td></tr><tr><td style="font-weight:bold;vertical-align:top;">HTTP_USER_AGENT</td><td style="vertical-align:top;">:</td><td><div>Mozilla/5.0 (X11; Ubuntu; Linux x86_64; rv:37.0) Gecko/20100101 Firefox/37.0</div></td></tr><tr><td style="font-weight:bold;vertical-align:top;">PATH_INFO</td><td style="vertical-align:top;">:</td><td><div>/pro1/default/book</div></td></tr><tr><td style="font-weight:bold;vertical-align:top;">QUERY_STRING</td><td style="vertical-align:top;">:</td><td><div>satime=05%3A57%3A40&amp;sclass=Economy&amp;sdate=None&amp;sdest=Bangalore&amp;sdtime=08%3A57%3A42&amp;seats=2&amp;sfare=246&amp;sid=6546&amp;ssrc=Ahmedabad</div></td></tr><tr><td style="font-weight:bold;vertical-align:top;">REMOTE_ADDR</td><td style="vertical-align:top;">:</td><td><div>127.0.0.1</div></td></tr><tr><td style="font-weight:bold;vertical-align:top;">REMOTE_PORT</td><td style="vertical-align:top;">:</td><td><div>55474</div></td></tr><tr><td style="font-weight:bold;vertical-align:top;">REQUEST_METHOD</td><td style="vertical-align:top;">:</td><td><div>GET</div></td></tr><tr><td style="font-weight:bold;vertical-align:top;">SCRIPT_NAME</td><td style="vertical-align:top;">:</td><td><div></div></td></tr><tr><td style="font-weight:bold;vertical-align:top;">SERVER_NAME</td><td style="vertical-align:top;">:</td><td><div>iiit-srv</div></td></tr><tr><td style="font-weight:bold;vertical-align:top;">SERVER_PORT</td><td style="vertical-align:top;">:</td><td><div>8000</div></td></tr><tr><td style="font-weight:bold;vertical-align:top;">SERVER_PROTOCOL</td><td style="vertical-align:top;">:</td><td><div>HTTP/1.1</div></td></tr><tr><td style="font-weight:bold;vertical-align:top;">SERVER_SOFTWARE</td><td style="vertical-align:top;">:</td><td><div>Rocket 1.2.6</div></td></tr><tr><td style="font-weight:bold;vertical-align:top;">app_folders</td><td style="vertical-align:top;">:</td><td><div>set([&#x27;/home/sourav/web2py/applications/UIpart/&#x27;, &#x27;/home/sourav/web2py/applications/p1/&#x27;, &#x27;/home/sourav/web2py/applications/pro1/&#x27;, &#x27;/home/sourav/web2py/applications/welcome/&#x27;, &#x27;/home/sourav/web2py/applications/appp1/&#x27;, &#x27;/home/sourav/web2py/applications/admin/&#x27;])</div></td></tr><tr><td style="font-weight:bold;vertical-align:top;">applications_parent</td><td style="vertical-align:top;">:</td><td><div>/home/sourav/web2py</div></td></tr><tr><td style="font-weight:bold;vertical-align:top;">cmd_args</td><td style="vertical-align:top;">:</td><td><div><table></table></div></td></tr><tr><td style="font-weight:bold;vertical-align:top;">cmd_options</td><td style="vertical-align:top;">:</td><td><div>&lt;Values at 0x7fd7d0fba3b0: {&#x27;verbose&#x27;: False, &#x27;ip&#x27;: &#x27;127.0.0.1&#x27;, &#x27;debuglevel&#x27;: 30, &#x27;with_scheduler&#x27;: False, &#x27;ips&#x27;: [&#x27;127.0.1.1&#x27;], &#x27;shutdown_timeout&#x27;: 5, &#x27;taskbar&#x27;: False, &#x27;with_coverage&#x27;: False, &#x27;scheduler_groups&#x27;: None, &#x27;port&#x27;: 8000, &#x27;maxthreads&#x27;: None, &#x27;softcron&#x27;: False, &#x27;server_name&#x27;: &#x27;iiit-srv&#x27;, &#x27;bpython&#x27;: False, &#x27;nogui&#x27;: False, &#x27;pid_filename&#x27;: &#x27;httpserver.pid&#x27;, &#x27;print_errors&#x27;: False, &#x27;extcron&#x27;: False, &#x27;runcron&#x27;: False, &#x27;run_system_tests&#x27;: False, &#x27;test&#x27;: None, &#x27;folder&#x27;: &#x27;/home/sourav/web2py&#x27;, &#x27;config&#x27;: &#x27;&#x27;, &#x27;minthreads&#x27;: None, &#x27;shell&#x27;: None, &#x27;run&#x27;: &#x27;&#x27;, &#x27;log_filename&#x27;: &#x27;httpserver.log&#x27;, &#x27;profiler_dir&#x27;: None, &#x27;args&#x27;: [&#x27;&#x27;], &#x27;socket_timeout&#x27;: 5, &#x27;ssl_ca_certificate&#x27;: None, &#x27;scheduler&#x27;: None, &#x27;interfaces&#x27;: None, &#x27;ssl_private_key&#x27;: &#x27;&#x27;, &#x27;gae&#x27;: None, &#x27;password&#x27;: &#x27;&lt;ask&gt;&#x27;, &#x27;request_queue_size&#x27;: 5, &#x27;ssl_certificate&#x27;: &#x27;&#x27;, &#x27;cronjob&#x27;: False, &#x27;numthreads&#x27;: None, &#x27;quiet&#x27;: False, &#x27;import_models&#x27;: False, &#x27;timeout&#x27;: 10, &#x27;plain&#x27;: False, &#x27;nobanner&#x27;: False}&gt;</div></td></tr><tr><td style="font-weight:bold;vertical-align:top;">db_sessions</td><td style="vertical-align:top;">:</td><td><div>set([])</div></td></tr><tr><td style="font-weight:bold;vertical-align:top;">debugging</td><td style="vertical-align:top;">:</td><td><div>True</div></td></tr><tr><td style="font-weight:bold;vertical-align:top;">gluon_parent</td><td style="vertical-align:top;">:</td><td><div>/home/sourav/web2py</div></td></tr><tr><td style="font-weight:bold;vertical-align:top;">http_accept</td><td style="vertical-align:top;">:</td><td><div>text/html,application/xhtml+xml,application/xml;q=0.9,*/*;q=0.8</div></td></tr><tr><td style="font-weight:bold;vertical-align:top;">http_accept_encoding</td><td style="vertical-align:top;">:</td><td><div>gzip, deflate</div></td></tr><tr><td style="font-weight:bold;vertical-align:top;">http_accept_language</td><td style="vertical-align:top;">:</td><td><div>en-US,en;q=0.5</div></td></tr><tr><td style="font-weight:bold;vertical-align:top;">http_connection</td><td style="vertical-align:top;">:</td><td><div>keep-alive</div></td></tr><tr><td style="font-weight:bold;vertical-align:top;">http_cookie</td><td style="vertical-align:top;">:</td><td><div>session_id_welcome=127.0.0.1-8ad063c4-770c-4875-adf6-0a90f836d9b2; session_id_admin=127.0.0.1-272b6b99-6f58-4d9e-872c-c7fecc6a56c1; session_id_appp1=127.0.0.1-5df31f36-0b15-4160-98e0-5783326b9a1a; session_id_pro1=127.0.0.1-a22469ed-fb09-4c87-8905-f103dd4a51e9; session_id_uipart=127.0.0.1-8f1f0467-cfac-4894-8fb1-9ec0fc48b0c1; session_id_p1=127.0.0.1-7fa6e2d2-1f97-4130-b9ac-b35517cc12c9</div></td></tr><tr><td style="font-weight:bold;vertical-align:top;">http_host</td><td style="vertical-align:top;">:</td><td><div>127.0.0.1:8000</div></td></tr><tr><td style="font-weight:bold;vertical-align:top;">http_referer</td><td style="vertical-align:top;">:</td><td><div>http://127.0.0.1:8000/pro1/default/confirm?satime=05%3A57%3A40&amp;sclass=Economy&amp;scompany=Indigo&amp;sdest=Bangalore&amp;sdtime=08%3A57%3A42&amp;seats=2&amp;sfare=246&amp;sid=6546&amp;ssrc=Ahmedabad</div></td></tr><tr><td style="font-weight:bold;vertical-align:top;">http_user_agent</td><td style="vertical-align:top;">:</td><td><div>Mozilla/5.0 (X11; Ubuntu; Linux x86_64; rv:37.0) Gecko/20100101 Firefox/37.0</div></td></tr><tr><td style="font-weight:bold;vertical-align:top;">is_jython</td><td style="vertical-align:top;">:</td><td><div>False</div></td></tr><tr><td style="font-weight:bold;vertical-align:top;">is_pypy</td><td style="vertical-align:top;">:</td><td><div>False</div></td></tr><tr><td style="font-weight:bold;vertical-align:top;">is_source</td><td style="vertical-align:top;">:</td><td><div>True</div></td></tr><tr><td style="font-weight:bold;vertical-align:top;">local_hosts</td><td style="vertical-align:top;">:</td><td><div><table><tr><td><div>::1</div></td></tr><tr><td><div>127.0.1.1</div></td></tr><tr><td><div>::ffff:127.0.0.1</div></td></tr><tr><td><div>127.0.0.1</div></td></tr><tr><td><div>iiit-srv</div></td></tr></table></div></td></tr><tr><td style="font-weight:bold;vertical-align:top;">path_info</td><td style="vertical-align:top;">:</td><td><div>/pro1/default/book</div></td></tr><tr><td style="font-weight:bold;vertical-align:top;">query_string</td><td style="vertical-align:top;">:</td><td><div>satime=05%3A57%3A40&amp;sclass=Economy&amp;sdate=None&amp;sdest=Bangalore&amp;sdtime=08%3A57%3A42&amp;seats=2&amp;sfare=246&amp;sid=6546&amp;ssrc=Ahmedabad</div></td></tr><tr><td style="font-weight:bold;vertical-align:top;">remote_addr</td><td style="vertical-align:top;">:</td><td><div>127.0.0.1</div></td></tr><tr><td style="font-weight:bold;vertical-align:top;">remote_port</td><td style="vertical-align:top;">:</td><td><div>55474</div></td></tr><tr><td style="font-weight:bold;vertical-align:top;">request_method</td><td style="vertical-align:top;">:</td><td><div>GET</div></td></tr><tr><td style="font-weight:bold;vertical-align:top;">request_uri</td><td style="vertical-align:top;">:</td><td><div>/pro1/default/book?satime=05%3A57%3A40&amp;sclass=Economy&amp;sdate=None&amp;sdest=Bangalore&amp;sdtime=08%3A57%3A42&amp;seats=2&amp;sfare=246&amp;sid=6546&amp;ssrc=Ahmedabad</div></td></tr><tr><td style="font-weight:bold;vertical-align:top;">script_name</td><td style="vertical-align:top;">:</td><td><div></div></td></tr><tr><td style="font-weight:bold;vertical-align:top;">server_name</td><td style="vertical-align:top;">:</td><td><div>iiit-srv</div></td></tr><tr><td style="font-weight:bold;vertical-align:top;">server_port</td><td style="vertical-align:top;">:</td><td><div>8000</div></td></tr><tr><td style="font-weight:bold;vertical-align:top;">server_protocol</td><td style="vertical-align:top;">:</td><td><div>HTTP/1.1</div></td></tr><tr><td style="font-weight:bold;vertical-align:top;">server_software</td><td style="vertical-align:top;">:</td><td><div>Rocket 1.2.6</div></td></tr><tr><td style="font-weight:bold;vertical-align:top;">web2py_path</td><td style="vertical-align:top;">:</td><td><div>/home/sourav/web2py</div></td></tr><tr><td style="font-weight:bold;vertical-align:top;">web2py_version</td><td style="vertical-align:top;">:</td><td><div>2.10.3-stable+timestamp.2015.04.02.21.42.07</div></td></tr><tr><td style="font-weight:bold;vertical-align:top;">wsgi.errors</td><td style="vertical-align:top;">:</td><td><div>&lt;open file &#x27;&lt;stderr&gt;&#x27;, mode &#x27;w&#x27; at 0x7fd7d58371e0&gt;</div></td></tr><tr><td style="font-weight:bold;vertical-align:top;">wsgi.file_wrapper</td><td style="vertical-align:top;">:</td><td><div>&lt;class wsgiref.util.FileWrapper at 0x7fd7d0b1b8d8&gt;</div></td></tr><tr><td style="font-weight:bold;vertical-align:top;">wsgi.input</td><td style="vertical-align:top;">:</td><td><div>&lt;socket._fileobject object at 0x7fd78a881450&gt;</div></td></tr><tr><td style="font-weight:bold;vertical-align:top;">wsgi.multiprocess</td><td style="vertical-align:top;">:</td><td><div>False</div></td></tr><tr><td style="font-weight:bold;vertical-align:top;">wsgi.multithread</td><td style="vertical-align:top;">:</td><td><div>True</div></td></tr><tr><td style="font-weight:bold;vertical-align:top;">wsgi.run_once</td><td style="vertical-align:top;">:</td><td><div>False</div></td></tr><tr><td style="font-weight:bold;vertical-align:top;">wsgi.url_scheme</td><td style="vertical-align:top;">:</td><td><div>http</div></td></tr><tr><td style="font-weight:bold;vertical-align:top;">wsgi.version</td><td style="vertical-align:top;">:</td><td><div><table><tr><td><div>1</div></td></tr><tr><td><div>0</div></td></tr></table></div></td></tr><tr><td style="font-weight:bold;vertical-align:top;">wsgi_errors</td><td style="vertical-align:top;">:</td><td><div>&lt;open file &#x27;&lt;stderr&gt;&#x27;, mode &#x27;w&#x27; at 0x7fd7d58371e0&gt;</div></td></tr><tr><td style="font-weight:bold;vertical-align:top;">wsgi_file_wrapper</td><td style="vertical-align:top;">:</td><td><div>&lt;class wsgiref.util.FileWrapper at 0x7fd7d0b1b8d8&gt;</div></td></tr><tr><td style="font-weight:bold;vertical-align:top;">wsgi_input</td><td style="vertical-align:top;">:</td><td><div>&lt;socket._fileobject object at 0x7fd78a881450&gt;</div></td></tr><tr><td style="font-weight:bold;vertical-align:top;">wsgi_multiprocess</td><td style="vertical-align:top;">:</td><td><div>False</div></td></tr><tr><td style="font-weight:bold;vertical-align:top;">wsgi_multithread</td><td style="vertical-align:top;">:</td><td><div>True</div></td></tr><tr><td style="font-weight:bold;vertical-align:top;">wsgi_run_once</td><td style="vertical-align:top;">:</td><td><div>False</div></td></tr><tr><td style="font-weight:bold;vertical-align:top;">wsgi_url_scheme</td><td style="vertical-align:top;">:</td><td><div>http</div></td></tr><tr><td style="font-weight:bold;vertical-align:top;">wsgi_version</td><td style="vertical-align:top;">:</td><td><div><table><tr><td><div>1</div></td></tr><tr><td><div>0</div></td></tr></table></div></td></tr></table></div></td></tr><tr><td style="font-weight:bold;vertical-align:top;">extension</td><td style="vertical-align:top;">:</td><td><div>html</div></td></tr><tr><td style="font-weight:bold;vertical-align:top;">folder</td><td style="vertical-align:top;">:</td><td><div>/home/sourav/web2py/applications/pro1/</div></td></tr><tr><td style="font-weight:bold;vertical-align:top;">function</td><td style="vertical-align:top;">:</td><td><div>book</div></td></tr><tr><td style="font-weight:bold;vertical-align:top;">global_settings</td><td style="vertical-align:top;">:</td><td><div><table><tr><td style="font-weight:bold;vertical-align:top;">app_folders</td><td style="vertical-align:top;">:</td><td><div>set([&#x27;/home/sourav/web2py/applications/UIpart/&#x27;, &#x27;/home/sourav/web2py/applications/p1/&#x27;, &#x27;/home/sourav/web2py/applications/pro1/&#x27;, &#x27;/home/sourav/web2py/applications/welcome/&#x27;, &#x27;/home/sourav/web2py/applications/appp1/&#x27;, &#x27;/home/sourav/web2py/applications/admin/&#x27;])</div></td></tr><tr><td style="font-weight:bold;vertical-align:top;">applications_parent</td><td style="vertical-align:top;">:</td><td><div>/home/sourav/web2py</div></td></tr><tr><td style="font-weight:bold;vertical-align:top;">cmd_args</td><td style="vertical-align:top;">:</td><td><div><table></table></div></td></tr><tr><td style="font-weight:bold;vertical-align:top;">cmd_options</td><td style="vertical-align:top;">:</td><td><div>&lt;Values at 0x7fd7d0fba3b0: {&#x27;verbose&#x27;: False, &#x27;ip&#x27;: &#x27;127.0.0.1&#x27;, &#x27;debuglevel&#x27;: 30, &#x27;with_scheduler&#x27;: False, &#x27;ips&#x27;: [&#x27;127.0.1.1&#x27;], &#x27;shutdown_timeout&#x27;: 5, &#x27;taskbar&#x27;: False, &#x27;with_coverage&#x27;: False, &#x27;scheduler_groups&#x27;: None, &#x27;port&#x27;: 8000, &#x27;maxthreads&#x27;: None, &#x27;softcron&#x27;: False, &#x27;server_name&#x27;: &#x27;iiit-srv&#x27;, &#x27;bpython&#x27;: False, &#x27;nogui&#x27;: False, &#x27;pid_filename&#x27;: &#x27;httpserver.pid&#x27;, &#x27;print_errors&#x27;: False, &#x27;extcron&#x27;: False, &#x27;runcron&#x27;: False, &#x27;run_system_tests&#x27;: False, &#x27;test&#x27;: None, &#x27;folder&#x27;: &#x27;/home/sourav/web2py&#x27;, &#x27;config&#x27;: &#x27;&#x27;, &#x27;minthreads&#x27;: None, &#x27;shell&#x27;: None, &#x27;run&#x27;: &#x27;&#x27;, &#x27;log_filename&#x27;: &#x27;httpserver.log&#x27;, &#x27;profiler_dir&#x27;: None, &#x27;args&#x27;: [&#x27;&#x27;], &#x27;socket_timeout&#x27;: 5, &#x27;ssl_ca_certificate&#x27;: None, &#x27;scheduler&#x27;: None, &#x27;interfaces&#x27;: None, &#x27;ssl_private_key&#x27;: &#x27;&#x27;, &#x27;gae&#x27;: None, &#x27;password&#x27;: &#x27;&lt;ask&gt;&#x27;, &#x27;request_queue_size&#x27;: 5, &#x27;ssl_certificate&#x27;: &#x27;&#x27;, &#x27;cronjob&#x27;: False, &#x27;numthreads&#x27;: None, &#x27;quiet&#x27;: False, &#x27;import_models&#x27;: False, &#x27;timeout&#x27;: 10, &#x27;plain&#x27;: False, &#x27;nobanner&#x27;: False}&gt;</div></td></tr><tr><td style="font-weight:bold;vertical-align:top;">db_sessions</td><td style="vertical-align:top;">:</td><td><div>set([])</div></td></tr><tr><td style="font-weight:bold;vertical-align:top;">debugging</td><td style="vertical-align:top;">:</td><td><div>True</div></td></tr><tr><td style="font-weight:bold;vertical-align:top;">gluon_parent</td><td style="vertical-align:top;">:</td><td><div>/home/sourav/web2py</div></td></tr><tr><td style="font-weight:bold;vertical-align:top;">is_jython</td><td style="vertical-align:top;">:</td><td><div>False</div></td></tr><tr><td style="font-weight:bold;vertical-align:top;">is_pypy</td><td style="vertical-align:top;">:</td><td><div>False</div></td></tr><tr><td style="font-weight:bold;vertical-align:top;">is_source</td><td style="vertical-align:top;">:</td><td><div>True</div></td></tr><tr><td style="font-weight:bold;vertical-align:top;">local_hosts</td><td style="vertical-align:top;">:</td><td><div><table><tr><td><div>::1</div></td></tr><tr><td><div>127.0.1.1</div></td></tr><tr><td><div>::ffff:127.0.0.1</div></td></tr><tr><td><div>127.0.0.1</div></td></tr><tr><td><div>iiit-srv</div></td></tr></table></div></td></tr><tr><td style="font-weight:bold;vertical-align:top;">web2py_version</td><td style="vertical-align:top;">:</td><td><div>2.10.3-stable+timestamp.2015.04.02.21.42.07</div></td></tr></table></div></td></tr><tr><td style="font-weight:bold;vertical-align:top;">is_https</td><td style="vertical-align:top;">:</td><td><div>False</div></td></tr><tr><td style="font-weight:bold;vertical-align:top;">is_local</td><td style="vertical-align:top;">:</td><td><div>True</div></td></tr><tr><td style="font-weight:bold;vertical-align:top;">is_restful</td><td style="vertical-align:top;">:</td><td><div>False</div></td></tr><tr><td style="font-weight:bold;vertical-align:top;">is_sheduler</td><td style="vertical-align:top;">:</td><td><div>None</div></td></tr><tr><td style="font-weight:bold;vertical-align:top;">is_shell</td><td style="vertical-align:top;">:</td><td><div>None</div></td></tr><tr><td style="font-weight:bold;vertical-align:top;">now</td><td style="vertical-align:top;">:</td><td><div>datetime.datetime(2015, 5, 4, 23, 59, 46, 42520)</div></td></tr><tr><td style="font-weight:bold;vertical-align:top;">raw_args</td><td style="vertical-align:top;">:</td><td><div></div></td></tr><tr><td style="font-weight:bold;vertical-align:top;">raw_extension</td><td style="vertical-align:top;">:</td><td><div>None</div></td></tr><tr><td style="font-weight:bold;vertical-align:top;">url</td><td style="vertical-align:top;">:</td><td><div>/pro1/default/book</div></td></tr><tr><td style="font-weight:bold;vertical-align:top;">utcnow</td><td style="vertical-align:top;">:</td><td><div>datetime.datetime(2015, 5, 4, 18, 29, 46, 42535)</div></td></tr><tr><td style="font-weight:bold;vertical-align:top;">uuid</td><td style="vertical-align:top;">:</td><td><div>pro1/127.0.0.1.2015-05-04.23-59-46.f78fa5f2-44cc-4166-b481-5d6de63a4827</div></td></tr><tr><td style="font-weight:bold;vertical-align:top;">wsgi</td><td style="vertical-align:top;">:</td><td><div>&lt;gluon.main.LazyWSGI object at 0x7fd78ab01ad0&gt;</div></td></tr></table></div>'
tRp70
sS'frames'
p71
(lp72
(dp73
S'file'
p74
S'/home/sourav/web2py/gluon/restricted.py'
p75
sS'dump'
p76
(dp77
S'environment'
p78
S"{'A': <class 'gluon.html.A'>, 'ANY_OF': <class 'gluon.validators.ANY_OF'>, 'ASSIGNJS': <function ASSIGNJS>, 'AppConfig': <function AppConfig>, 'Auth': <class 'gluon.tools.Auth'>, 'B': <class 'gluon.html.B'>, 'BEAUTIFY': <class 'gluon.html.BEAUTIFY'>, 'BODY': <class 'gluon.html.BODY'>, 'BR': <class 'gluon.html.BR'>, 'BUTTON': <class 'gluon.html.BUTTON'>, ...}"
p79
sS'ccode'
p80
S'<code object <module> at 0x7fd78a946730, file "/...plications/pro1/controllers/default.py", line 11>'
p81
ssS'lnum'
p82
I227
sS'lines'
p83
(dp84
I224
S'            ccode = code'
p85
sI225
S'        else:'
p86
sI226
S'            ccode = compile2(code, layer)'
p87
sI227
S'        exec ccode in environment'
p88
sI228
S'    except HTTP:'
p89
sI229
S'        raise'
p90
sI230
S'    except RestrictedError:'
p91
sI231
S'        # do not encapsulate (obfuscate) the original RestrictedError'
p92
sI222
S'    try:'
p93
sI223
S'        if isinstance(code, types.CodeType):'
p94
ssS'call'
p95
S"(code='# -*- coding: utf-8 -*-\\n# this file is released ...service()\\n\\nresponse._vars=response._caller(book)\\n', environment={'A': <class 'gluon.html.A'>, 'ANY_OF': <class 'gluon.validators.ANY_OF'>, 'ASSIGNJS': <function ASSIGNJS>, 'AppConfig': <function AppConfig>, 'Auth': <class 'gluon.tools.Auth'>, 'B': <class 'gluon.html.B'>, 'BEAUTIFY': <class 'gluon.html.BEAUTIFY'>, 'BODY': <class 'gluon.html.BODY'>, 'BR': <class 'gluon.html.BR'>, 'BUTTON': <class 'gluon.html.BUTTON'>, ...}, layer='/home/sourav/web2py/applications/pro1/controllers/default.py')"
p96
sS'func'
p97
S'restricted'
p98
sa(dp99
g74
S'/home/sourav/web2py/applications/pro1/controllers/default.py'
p100
sg76
(dp101
sg82
I230
sg83
(dp102
I224
S'    http://..../[app]/default/call/jsonrpc'
p103
sI225
S'    decorate with @services.jsonrpc the functions to expose'
p104
sI226
S'    supports xml, json, xmlrpc, jsonrpc, amfrpc, rss, csv'
p105
sI227
S'    """'
p106
sI228
S'    return service()'
p107
sI219
S''
sI220
S''
sI221
S'def call():'
p108
sI222
S'    """'
p109
sI223
S'    exposes services. for example:'
p110
ssg95
S'()'
p111
sg97
S'<module>'
p112
sa(dp113
g74
S'/home/sourav/web2py/gluon/globals.py'
p114
sg76
(dp115
S'self'
p116
S'undefined'
p117
sS'f'
S'<function book>'
p118
ssg82
I393
sg83
(dp119
I388
S"        self.flash = ''            # used by the default view layout"
p120
sI389
S'        self.meta = Storage()      # used by web2py_ajax.html'
p121
sI390
S'        self.menu = []             # used by the default view layout'
p122
sI391
S'        self.files = []            # used by web2py_ajax.html'
p123
sI392
S'        self._vars = None'
p124
sI393
S'        self._caller = lambda f: f()'
p125
sI394
S'        self._view_environment = None'
p126
sI395
S'        self._custom_commit = None'
p127
sI396
S'        self._custom_rollback = None'
p128
sI397
S"        self.generic_patterns = ['*']"
p129
ssg95
S'(f=<function book>)'
p130
sg97
S'<lambda>'
p131
sa(dp132
g74
S'/home/sourav/web2py/applications/pro1/controllers/default.py'
p133
sg76
(dp134
S'booked_in'
p135
g117
sS'auth.user.id'
p136
S'1L'
p137
sS'global session'
p138
S"<Storage {'last_query': 'db.flight_bookings.id>0...gin]': ['9d2e6bef-e719-404f-93e2-1e5687508c24']}>"
p139
sS'depart'
p140
g117
sS'request.vars.send'
p141
S'None'
p142
sS'cl'
p143
g117
sS'global request'
p144
S"<Storage {'_vars': <Storage {'sdate': 'None', 's...lder': '/home/sourav/web2py/applications/pro1/'}>"
p145
sS'num'
p146
g117
sS'request.vars.price'
p147
S'None'
p148
sS'request.vars.dtime'
p149
S'None'
p150
sS'request.vars.lis'
p151
S'None'
p152
sS'user_id'
p153
g117
sS'request.vars.cl'
p154
S'None'
p155
sS'lis'
p156
g117
sS'request.vars'
p157
S"<Storage {'sdate': 'None', 'ssrc': 'Ahmedabad', ...are': '246', 'seats': '2', 'sdest': 'Bangalore'}>"
p158
sS'request.vars.dest'
p159
S'None'
p160
sS'arrival'
p161
g117
sS'dest'
p162
g117
sS'price'
p163
g117
sS'db.flight_bookings.insert'
p164
S'<bound method Table.insert of <Table flight_book..._id,num,d,arrival,depart,lis,price,cl,src,dest)>>'
p165
sS'global auth'
p166
S'<gluon.tools.Auth object>'
p167
sS'request.vars.seats'
p168
S"'2'"
p169
sS'src'
p170
g117
sS'd'
g117
sS'auth.user'
p171
S"<Row {'first_name': 'Sourav', 'last_name': 'Chan...b7130ad66b2f', 'registration_key': '', 'id': 1L}>"
p172
sS'db.flight_bookings'
p173
S'<Table flight_bookings (id,user_id,num,d,arrival,depart,lis,price,cl,src,dest)>'
p174
sS'request.vars.src'
p175
S'None'
p176
sS'request.vars.atime'
p177
S'None'
p178
sS'global db'
p179
S'<DAL uri="sqlite://storage.sqlite">'
p180
sS'session.date'
p181
S"'2015-05-17'"
p182
ssg82
I98
sg83
(dp183
I96
S''
sI97
S'def book():'
p184
sI98
S'        db.flight_bookings.insert(user_id=auth.user.id,num=request.vars.seats,d=session.date,arrival=request.vars.atime,depart=request.vars.dtime,lis=request.vars.send,price=request.vars.price,booked_in=request.vars.lis,src=request.vars.src,dest=request.vars.dest,cl=request.vars.cl)'
p185
sI99
S'\tsession.flash="Your ticket has been booked!"'
p186
sI100
S"\tredirect(URL('index'))"
p187
sI101
S''
sI102
S''
sI93
S'def confirm():'
p188
sI94
S'    return dict()'
p189
sI95
S''
ssg95
S'()'
p190
sg97
S'book'
p191
sa(dp192
g74
S'/home/sourav/web2py/gluon/packages/dal/pydal/objects.py'
p193
sg76
(dp194
S'self._listify'
p195
S'<bound method Table._listify of <Table flight_bo..._id,num,d,arrival,depart,lis,price,cl,src,dest)>>'
p196
sS'fields'
p197
S"{'arrival': None, 'booked_in': None, 'cl': None, 'd': '2015-05-17', 'depart': None, 'dest': None, 'lis': None, 'num': '2', 'price': None, 'src': None, ...}"
p198
sS'self'
p199
S'<Table flight_bookings (id,user_id,num,d,arrival,depart,lis,price,cl,src,dest)>'
p200
sS'ret'
p201
g117
sS'self._db._adapter'
p202
S'<pydal.adapters.sqlite.SQLiteAdapter object>'
p203
sS'self._db._adapter.insert'
p204
S'<bound method SQLiteAdapter.insert of <pydal.adapters.sqlite.SQLiteAdapter object>>'
p205
sS'self._db'
p206
S'<DAL uri="sqlite://storage.sqlite">'
p207
ssg82
I745
sg83
(dp208
I740
S''
sI741
S'    def insert(self, **fields):'
p209
sI742
S'        fields = self._defaults(fields)'
p210
sI743
S'        self._attempt_upload(fields)'
p211
sI744
S'        if any(f(fields) for f in self._before_insert): return 0'
p212
sI745
S'        ret =  self._db._adapter.insert(self, self._listify(fields))'
p213
sI746
S'        if ret and self._after_insert:'
p214
sI747
S'            fields = Row(fields)'
p215
sI748
S'            [f(fields,ret) for f in self._after_insert]'
p216
sI749
S'        return ret'
p217
ssg95
S"(self=<Table flight_bookings (id,user_id,num,d,arrival,depart,lis,price,cl,src,dest)>, **fields={'arrival': None, 'booked_in': None, 'cl': None, 'd': '2015-05-17', 'depart': None, 'dest': None, 'lis': None, 'num': '2', 'price': None, 'src': None, ...})"
p218
sg97
S'insert'
p219
sa(dp220
g74
S'/home/sourav/web2py/gluon/packages/dal/pydal/objects.py'
p221
sg76
(dp222
S'name'
p223
S"'booked_in'"
p224
ssg82
I663
sg83
(dp225
I658
S'        # store all fields passed as input in new_fields'
p226
sI659
S'        for name in fields:'
p227
sI660
S'            if not name in self.fields:'
p228
sI661
S"                if name != 'id':"
p229
sI662
S'                    raise SyntaxError('
p230
sI663
S"                        'Field %s does not belong to the table' % name)"
p231
sI664
S'            else:'
p232
sI665
S'                field = self[name]'
p233
sI666
S'                value = fields[name]'
p234
sI667
S'                if field.filter_in:'
p235
ssg95
S"(self=<Table flight_bookings (id,user_id,num,d,arrival,depart,lis,price,cl,src,dest)>, fields={'arrival': None, 'booked_in': None, 'cl': None, 'd': '2015-05-17', 'depart': None, 'dest': None, 'lis': None, 'num': '2', 'price': None, 'src': None, ...}, update=False)"
p236
sg97
S'_listify'
p237
sasS'pyver'
p238
S'Python 2.7.6: /usr/bin/python (prefix: /usr)'
p239
sS'session'
p240
g69
(S's\xd1\x0b\x00\x00<div><table><tr><td style="font-weight:bold;vertical-align:top;">auth</td><td style="vertical-align:top;">:</td><td><div><table><tr><td style="font-weight:bold;vertical-align:top;">expiration</td><td style="vertical-align:top;">:</td><td><div>3600</div></td></tr><tr><td style="font-weight:bold;vertical-align:top;">hmac_key</td><td style="vertical-align:top;">:</td><td><div>64eb1a1e-9261-46ba-873f-494a35843389</div></td></tr><tr><td style="font-weight:bold;vertical-align:top;">last_visit</td><td style="vertical-align:top;">:</td><td><div>datetime.datetime(2015, 5, 4, 23, 55, 57, 895321)</div></td></tr><tr><td style="font-weight:bold;vertical-align:top;">remember_me</td><td style="vertical-align:top;">:</td><td><div>False</div></td></tr><tr><td style="font-weight:bold;vertical-align:top;">user</td><td style="vertical-align:top;">:</td><td><div><table><tr><td style="font-weight:bold;vertical-align:top;">email</td><td style="vertical-align:top;">:</td><td><div>souravchanduka37@gmail.com</div></td></tr><tr><td style="font-weight:bold;vertical-align:top;">first_name</td><td style="vertical-align:top;">:</td><td><div>Sourav</div></td></tr><tr><td style="font-weight:bold;vertical-align:top;">id</td><td style="vertical-align:top;">:</td><td><div>1L</div></td></tr><tr><td style="font-weight:bold;vertical-align:top;">last_name</td><td style="vertical-align:top;">:</td><td><div>Chanduka</div></td></tr><tr><td style="font-weight:bold;vertical-align:top;">registration_id</td><td style="vertical-align:top;">:</td><td><div></div></td></tr><tr><td style="font-weight:bold;vertical-align:top;">registration_key</td><td style="vertical-align:top;">:</td><td><div></div></td></tr><tr><td style="font-weight:bold;vertical-align:top;">reset_password_key</td><td style="vertical-align:top;">:</td><td><div>1430552029-0a4b013c-56da-4337-b2d5-b7130ad66b2f</div></td></tr></table></div></td></tr><tr><td style="font-weight:bold;vertical-align:top;">user_groups</td><td style="vertical-align:top;">:</td><td><div><table><tr><td style="font-weight:bold;vertical-align:top;">1</td><td style="vertical-align:top;">:</td><td><div>user_1</div></td></tr><tr><td style="font-weight:bold;vertical-align:top;">2</td><td style="vertical-align:top;">:</td><td><div>managers</div></td></tr></table></div></td></tr></table></div></td></tr><tr><td style="font-weight:bold;vertical-align:top;">date</td><td style="vertical-align:top;">:</td><td><div>2015-05-17</div></td></tr><tr><td style="font-weight:bold;vertical-align:top;">flash</td><td style="vertical-align:top;">:</td><td><div>None</div></td></tr><tr><td style="font-weight:bold;vertical-align:top;">last_orderby</td><td style="vertical-align:top;">:</td><td><div>None</div></td></tr><tr><td style="font-weight:bold;vertical-align:top;">last_query</td><td style="vertical-align:top;">:</td><td><div>db.flight_bookings.id&gt;0</div></td></tr><tr><td style="font-weight:bold;vertical-align:top;">seats</td><td style="vertical-align:top;">:</td><td><div>2</div></td></tr></table></div>'
tRp241
sS'etype'
p242
S"<type 'exceptions.SyntaxError'>"
p243
sS'date'
p244
S'Mon May  4 23:59:46 2015'
p245
sS'response'
p246
g69
(S's\n#\x00\x00<div><table><tr><td style="font-weight:bold;vertical-align:top;">body</td><td style="vertical-align:top;">:</td><td><div>&lt;cStringIO.StringO object at 0x7fd78a518f48&gt;</div></td></tr><tr><td style="font-weight:bold;vertical-align:top;">cookies</td><td style="vertical-align:top;">:</td><td><div><table><tr><td style="font-weight:bold;vertical-align:top;">session_id_pro1</td><td style="vertical-align:top;">:</td><td><div>127.0.0.1-a22469ed-fb09-4c87-8905-f103dd4a51e9<table><tr><td style="font-weight:bold;vertical-align:top;">comment</td><td style="vertical-align:top;">:</td><td><div></div></td></tr><tr><td style="font-weight:bold;vertical-align:top;">domain</td><td style="vertical-align:top;">:</td><td><div></div></td></tr><tr><td style="font-weight:bold;vertical-align:top;">expires</td><td style="vertical-align:top;">:</td><td><div></div></td></tr><tr><td style="font-weight:bold;vertical-align:top;">httponly</td><td style="vertical-align:top;">:</td><td><div></div></td></tr><tr><td style="font-weight:bold;vertical-align:top;">max-age</td><td style="vertical-align:top;">:</td><td><div></div></td></tr><tr><td style="font-weight:bold;vertical-align:top;">path</td><td style="vertical-align:top;">:</td><td><div>/</div></td></tr><tr><td style="font-weight:bold;vertical-align:top;">secure</td><td style="vertical-align:top;">:</td><td><div></div></td></tr><tr><td style="font-weight:bold;vertical-align:top;">version</td><td style="vertical-align:top;">:</td><td><div></div></td></tr></table></div></td></tr></table></div></td></tr><tr><td style="font-weight:bold;vertical-align:top;">delimiters</td><td style="vertical-align:top;">:</td><td><div><table><tr><td><div>{{</div></td></tr><tr><td><div>}}</div></td></tr></table></div></td></tr><tr><td style="font-weight:bold;vertical-align:top;">files</td><td style="vertical-align:top;">:</td><td><div><table></table></div></td></tr><tr><td style="font-weight:bold;vertical-align:top;">flash</td><td style="vertical-align:top;">:</td><td><div></div></td></tr><tr><td style="font-weight:bold;vertical-align:top;">form_label_separator</td><td style="vertical-align:top;">:</td><td><div></div></td></tr><tr><td style="font-weight:bold;vertical-align:top;">formstyle</td><td style="vertical-align:top;">:</td><td><div>bootstrap3_inline</div></td></tr><tr><td style="font-weight:bold;vertical-align:top;">generic_patterns</td><td style="vertical-align:top;">:</td><td><div><table><tr><td><div>*</div></td></tr></table></div></td></tr><tr><td style="font-weight:bold;vertical-align:top;">google_analytics_id</td><td style="vertical-align:top;">:</td><td><div>None</div></td></tr><tr><td style="font-weight:bold;vertical-align:top;">headers</td><td style="vertical-align:top;">:</td><td><div><table><tr><td style="font-weight:bold;vertical-align:top;">X-Powered-By</td><td style="vertical-align:top;">:</td><td><div>web2py</div></td></tr></table></div></td></tr><tr><td style="font-weight:bold;vertical-align:top;">logo</td><td style="vertical-align:top;">:</td><td><div><a class="navbar-brand" href="http://127.0.0.1:8000/pro1/default/index.html" id="web2py-logo"><b><span>Happy Journey</span></b>&trade;&nbsp;</a></div></td></tr><tr><td style="font-weight:bold;vertical-align:top;">menu</td><td style="vertical-align:top;">:</td><td><div><table><tr><td><div><table><tr><td><div>Home</div></td></tr><tr><td><div>False</div></td></tr><tr><td><div>/pro1/default/index</div></td></tr><tr><td><div><table></table></div></td></tr></table></div></td></tr><tr><td><div><table><tr><td><div>Flight</div></td></tr><tr><td><div>False</div></td></tr><tr><td><div>/pro1/default/search_flight</div></td></tr></table></div></td></tr><tr><td><div><table><tr><td><div>Train</div></td></tr><tr><td><div>False</div></td></tr><tr><td><div>/pro1/default/search_train</div></td></tr></table></div></td></tr><tr><td><div><table><tr><td><div>Manage</div></td></tr><tr><td><div>False</div></td></tr><tr><td><div>#</div></td></tr><tr><td><div><table><tr><td><div><table><tr><td><div>User</div></td></tr><tr><td><div>False</div></td></tr><tr><td><div>/pro1/default/manage_users</div></td></tr></table></div></td></tr><tr><td><div><table><tr><td><div>Review</div></td></tr><tr><td><div>False</div></td></tr><tr><td><div>/pro1/default/manage_review</div></td></tr></table></div></td></tr><tr><td><div><table><tr><td><div>Places</div></td></tr><tr><td><div>False</div></td></tr><tr><td><div>/pro1/default/manage_places</div></td></tr></table></div></td></tr><tr><td><div><table><tr><td><div>Flight</div></td></tr><tr><td><div>False</div></td></tr><tr><td><div>/pro1/default/manage_flight</div></td></tr></table></div></td></tr><tr><td><div><table><tr><td><div>Train</div></td></tr><tr><td><div>False</div></td></tr><tr><td><div>/pro1/default/manage_train</div></td></tr></table></div></td></tr></table></div></td></tr></table></div></td></tr></table></div></td></tr><tr><td style="font-weight:bold;vertical-align:top;">meta</td><td style="vertical-align:top;">:</td><td><div><table><tr><td style="font-weight:bold;vertical-align:top;">author</td><td style="vertical-align:top;">:</td><td><div>Your Name &lt;you@example.com&gt;</div></td></tr><tr><td style="font-weight:bold;vertical-align:top;">description</td><td style="vertical-align:top;">:</td><td><div>a cool new app</div></td></tr><tr><td style="font-weight:bold;vertical-align:top;">generator</td><td style="vertical-align:top;">:</td><td><div>Web2py Web Framework</div></td></tr><tr><td style="font-weight:bold;vertical-align:top;">keywords</td><td style="vertical-align:top;">:</td><td><div>web2py, python, framework</div></td></tr></table></div></td></tr><tr><td style="font-weight:bold;vertical-align:top;">models_to_run</td><td style="vertical-align:top;">:</td><td><div><table><tr><td><div>^\\w+\\.py$</div></td></tr><tr><td><div>^default/\\w+\\.py$</div></td></tr><tr><td><div>^default/book/\\w+\\.py$</div></td></tr></table></div></td></tr><tr><td style="font-weight:bold;vertical-align:top;">postprocessing</td><td style="vertical-align:top;">:</td><td><div><table></table></div></td></tr><tr><td style="font-weight:bold;vertical-align:top;">session_client</td><td style="vertical-align:top;">:</td><td><div>127.0.0.1</div></td></tr><tr><td style="font-weight:bold;vertical-align:top;">session_cookie_compression_level</td><td style="vertical-align:top;">:</td><td><div>None</div></td></tr><tr><td style="font-weight:bold;vertical-align:top;">session_cookie_expires</td><td style="vertical-align:top;">:</td><td><div>None</div></td></tr><tr><td style="font-weight:bold;vertical-align:top;">session_cookie_key</td><td style="vertical-align:top;">:</td><td><div>None</div></td></tr><tr><td style="font-weight:bold;vertical-align:top;">session_data_name</td><td style="vertical-align:top;">:</td><td><div>session_data_pro1</div></td></tr><tr><td style="font-weight:bold;vertical-align:top;">session_file</td><td style="vertical-align:top;">:</td><td><div>&lt;open file &#x27;/home/sourav/web2py/applications/pro1/sessions/176/0ea/127.0.0.1-a22469ed-fb09-4c87-8905-f103dd4a51e9&#x27;, mode &#x27;rb+&#x27; at 0x7fd78a18fc00&gt;</div></td></tr><tr><td style="font-weight:bold;vertical-align:top;">session_filename</td><td style="vertical-align:top;">:</td><td><div>/home/sourav/web2py/applications/pro1/sessions/127.0.0.1-a22469ed-fb09-4c87-8905-f103dd4a51e9</div></td></tr><tr><td style="font-weight:bold;vertical-align:top;">session_hash</td><td style="vertical-align:top;">:</td><td><div>42a165439e1e458286e474a78d36ac52</div></td></tr><tr><td style="font-weight:bold;vertical-align:top;">session_id</td><td style="vertical-align:top;">:</td><td><div>127.0.0.1-a22469ed-fb09-4c87-8905-f103dd4a51e9</div></td></tr><tr><td style="font-weight:bold;vertical-align:top;">session_id_name</td><td style="vertical-align:top;">:</td><td><div>session_id_pro1</div></td></tr><tr><td style="font-weight:bold;vertical-align:top;">session_locked</td><td style="vertical-align:top;">:</td><td><div>True</div></td></tr><tr><td style="font-weight:bold;vertical-align:top;">session_masterapp</td><td style="vertical-align:top;">:</td><td><div>pro1</div></td></tr><tr><td style="font-weight:bold;vertical-align:top;">session_new</td><td style="vertical-align:top;">:</td><td><div>False</div></td></tr><tr><td style="font-weight:bold;vertical-align:top;">session_storage_type</td><td style="vertical-align:top;">:</td><td><div>file</div></td></tr><tr><td style="font-weight:bold;vertical-align:top;">status</td><td style="vertical-align:top;">:</td><td><div>200</div></td></tr><tr><td style="font-weight:bold;vertical-align:top;">subtitle</td><td style="vertical-align:top;">:</td><td><div></div></td></tr><tr><td style="font-weight:bold;vertical-align:top;">title</td><td style="vertical-align:top;">:</td><td><div>ITWS-II Project</div></td></tr><tr><td style="font-weight:bold;vertical-align:top;">view</td><td style="vertical-align:top;">:</td><td><div>default/book.html</div></td></tr></table></div>'
tRp247
sS'locals'
p248
(dp249
S'name'
p250
S"'booked_in'"
p251
sS'fields'
p252
S"{'arrival': None, 'booked_in': None, 'cl': None, 'd': '2015-05-17', 'depart': None, 'dest': None, 'lis': None, 'num': '2', 'price': None, 'src': None, ...}"
p253
sS'self'
p254
S'<Table flight_bookings (id,user_id,num,d,arrival,depart,lis,price,cl,src,dest)>'
p255
sS'update'
p256
S'False'
p257
sS'value'
p258
S"'2'"
p259
sS'field'
p260
S'<pydal.objects.Field object>'
p261
sS'new_fields'
p262
S"{'arrival': (<pydal.objects.Field object>, None), 'cl': (<pydal.objects.Field object>, None), 'd': (<pydal.objects.Field object>, '2015-05-17'), 'depart': (<pydal.objects.Field object>, None), 'dest': (<pydal.objects.Field object>, None), 'lis': (<pydal.objects.Field object>, None), 'num': (<pydal.objects.Field object>, '2'), 'price': (<pydal.objects.Field object>, None), 'src': (<pydal.objects.Field object>, None)}"
p263
sssS'traceback'
p264
S'Traceback (most recent call last):\n  File "/home/sourav/web2py/gluon/restricted.py", line 227, in restricted\n    exec ccode in environment\n  File "/home/sourav/web2py/applications/pro1/controllers/default.py", line 230, in <module>\n  File "/home/sourav/web2py/gluon/globals.py", line 393, in <lambda>\n    self._caller = lambda f: f()\n  File "/home/sourav/web2py/applications/pro1/controllers/default.py", line 98, in book\n    db.flight_bookings.insert(user_id=auth.user.id,num=request.vars.seats,d=session.date,arrival=request.vars.atime,depart=request.vars.dtime,lis=request.vars.send,price=request.vars.price,booked_in=request.vars.lis,src=request.vars.src,dest=request.vars.dest,cl=request.vars.cl)\n  File "/home/sourav/web2py/gluon/packages/dal/pydal/objects.py", line 745, in insert\n    ret =  self._db._adapter.insert(self, self._listify(fields))\n  File "/home/sourav/web2py/gluon/packages/dal/pydal/objects.py", line 663, in _listify\n    \'Field %s does not belong to the table\' % name)\nSyntaxError: Field booked_in does not belong to the table\n'
p265
s.